; Function Attrs: nounwind uwtable
define ptr @l_Std_Time_Day_Offset_ofMilliseconds(ptr noundef %0) local_unnamed_addr #0 {
  %2 = load ptr, ptr @l_Std_Time_Day_Offset_toMilliseconds___closed__1, align 8, !tbaa !11
  %3 = ptrtoint ptr %0 to i64
  %4 = and i64 %3, 1
  %.not.i = icmp eq i64 %4, 0
  br i1 %.not.i, label %.critedge.i, label %5, !prof !13

5:                                                ; preds = %1
  %6 = ptrtoint ptr %2 to i64
  %7 = and i64 %6, 1
  %.not18.i = icmp eq i64 %7, 0
  br i1 %.not18.i, label %.critedge.i, label %8, !prof !13

8:                                                ; preds = %5
  %9 = lshr i64 %6, 1
  %10 = trunc i64 %9 to i32
  %11 = icmp eq i32 %10, 0
  br i1 %11, label %lean_int_ediv.exit, label %12

12:                                               ; preds = %8
  %sext.i = shl i64 %9, 32
  %13 = ashr exact i64 %sext.i, 32
  %14 = shl i64 %3, 31
  %15 = ashr i64 %14, 32
  %16 = sdiv i64 %15, %13
  %17 = srem i64 %15, %13
  %18 = icmp slt i64 %17, 0
  %19 = icmp sgt i32 %10, 0
  %.v.i = select i1 %19, i64 -1, i64 1
  %20 = select i1 %18, i64 %.v.i, i64 0
  %.016.i = add nsw i64 %20, %16
  %21 = add nsw i64 %.016.i, 2147483648
  %22 = icmp ult i64 %21, 4294967296
  br i1 %22, label %23, label %28, !prof !10

23:                                               ; preds = %12
  %24 = shl nsw i64 %.016.i, 1
  %25 = and i64 %24, 8589934590
  %26 = or disjoint i64 %25, 1
  %27 = inttoptr i64 %26 to ptr
  br label %lean_int_ediv.exit

28:                                               ; preds = %12
  %29 = tail call ptr @lean_big_int64_to_int(i64 noundef range(i64 -4611686016279904256, 4611686018427387905) %.016.i) #6
  br label %lean_int_ediv.exit

.critedge.i:                                      ; preds = %5, %1
  %30 = tail call ptr @lean_int_big_ediv(ptr noundef %0, ptr noundef %2) #6
  br label %lean_int_ediv.exit

lean_int_ediv.exit:                               ; preds = %8, %23, %28, %.critedge.i
  %.1.i = phi ptr [ %30, %.critedge.i ], [ inttoptr (i64 1 to ptr), %8 ], [ %27, %23 ], [ %29, %28 ]
  ret ptr %.1.i
}